; Function Attrs: nounwind uwtable
define ptr @l_Lean_Elab_OpenDecl_resolveNameUsingNamespaces___rarg(ptr noundef %0, ptr noundef %1, ptr noundef %2, ptr noundef %3, ptr noundef %4, ptr noundef %5, ptr noundef %6, ptr noundef %7, ptr noundef %8, ptr noundef %9) #0 {
  %11 = getelementptr inbounds nuw i8, ptr %0, i64 16
  %12 = load ptr, ptr %11, align 8, !tbaa !4
  %13 = ptrtoint ptr %12 to i64
  %14 = and i64 %13, 1
  %.not = icmp eq i64 %14, 0
  br i1 %.not, label %15, label %lean_inc.exit32

15:                                               ; preds = %10
  %.val.i = load i32, ptr %12, align 4, !tbaa !8
  %16 = icmp sgt i32 %.val.i, 0
  br i1 %16, label %17, label %19, !prof !11

17:                                               ; preds = %15
  %18 = add nuw i32 %.val.i, 1
  store i32 %18, ptr %12, align 4, !tbaa !8
  br label %lean_inc.exit32

19:                                               ; preds = %15
  %.not.i = icmp eq i32 %.val.i, 0
  br i1 %.not.i, label %lean_inc.exit32, label %20

20:                                               ; preds = %19
  tail call void @lean_inc_ref_cold(ptr noundef nonnull %12) #6
  br label %lean_inc.exit32

lean_inc.exit32:                                  ; preds = %20, %19, %17, %10
  %21 = getelementptr inbounds nuw i8, ptr %7, i64 16
  %22 = load ptr, ptr %21, align 8, !tbaa !4
  %23 = ptrtoint ptr %22 to i64
  %24 = and i64 %23, 1
  %.not39 = icmp eq i64 %24, 0
  br i1 %.not39, label %25, label %lean_inc.exit31

25:                                               ; preds = %lean_inc.exit32
  %.val.i33 = load i32, ptr %22, align 4, !tbaa !8
  %26 = icmp sgt i32 %.val.i33, 0
  br i1 %26, label %27, label %29, !prof !11

27:                                               ; preds = %25
  %28 = add nuw i32 %.val.i33, 1
  store i32 %28, ptr %22, align 4, !tbaa !8
  br label %lean_inc.exit31

29:                                               ; preds = %25
  %.not.i34 = icmp eq i32 %.val.i33, 0
  br i1 %.not.i34, label %lean_inc.exit31, label %30

30:                                               ; preds = %29
  tail call void @lean_inc_ref_cold(ptr noundef nonnull %22) #6
  br label %lean_inc.exit31

lean_inc.exit31:                                  ; preds = %30, %29, %27, %lean_inc.exit32
  br i1 %.not, label %31, label %lean_inc.exit

31:                                               ; preds = %lean_inc.exit31
  %.val.i36 = load i32, ptr %12, align 4, !tbaa !8
  %32 = icmp sgt i32 %.val.i36, 0
  br i1 %32, label %33, label %35, !prof !11

33:                                               ; preds = %31
  %34 = add nuw i32 %.val.i36, 1
  store i32 %34, ptr %12, align 4, !tbaa !8
  br label %lean_inc.exit

35:                                               ; preds = %31
  %.not.i37 = icmp eq i32 %.val.i36, 0
  br i1 %.not.i37, label %lean_inc.exit, label %36

36:                                               ; preds = %35
  tail call void @lean_inc_ref_cold(ptr noundef nonnull %12) #6
  br label %lean_inc.exit

lean_inc.exit:                                    ; preds = %36, %35, %33, %lean_inc.exit31
  tail call void @lean_inc_heartbeat() #6
  %37 = tail call noalias ptr @mi_malloc_small(i64 noundef 112) #6
  %38 = icmp eq ptr %37, null
  br i1 %38, label %39, label %lean_alloc_closure.exit

39:                                               ; preds = %lean_inc.exit
  tail call void @lean_internal_panic_out_of_memory() #7
  unreachable

lean_alloc_closure.exit:                          ; preds = %lean_inc.exit
  %40 = getelementptr inbounds nuw i8, ptr %37, i64 4
  store i32 1, ptr %37, align 4, !tbaa !8
  store i32 -184549264, ptr %40, align 4
  %41 = getelementptr inbounds nuw i8, ptr %37, i64 8
  store ptr @l_Lean_Elab_OpenDecl_resolveNameUsingNamespaces___rarg___lambda__3, ptr %41, align 8, !tbaa !4
  %42 = getelementptr inbounds nuw i8, ptr %37, i64 16
  store i16 12, ptr %42, align 8, !tbaa !12
  %43 = getelementptr inbounds nuw i8, ptr %37, i64 18
  store i16 11, ptr %43, align 2, !tbaa !12
  %44 = getelementptr inbounds nuw i8, ptr %37, i64 24
  store ptr %7, ptr %44, align 8, !tbaa !4
  %45 = getelementptr inbounds nuw i8, ptr %37, i64 32
  store ptr %5, ptr %45, align 8, !tbaa !4
  %46 = getelementptr inbounds nuw i8, ptr %37, i64 40
  store ptr %0, ptr %46, align 8, !tbaa !4
  %47 = getelementptr inbounds nuw i8, ptr %37, i64 48
  store ptr %1, ptr %47, align 8, !tbaa !4
  %48 = getelementptr inbounds nuw i8, ptr %37, i64 56
  store ptr %2, ptr %48, align 8, !tbaa !4
  %49 = getelementptr inbounds nuw i8, ptr %37, i64 64
  store ptr %3, ptr %49, align 8, !tbaa !4
  %50 = getelementptr inbounds nuw i8, ptr %37, i64 72
  store ptr %4, ptr %50, align 8, !tbaa !4
  %51 = getelementptr inbounds nuw i8, ptr %37, i64 80
  store ptr %6, ptr %51, align 8, !tbaa !4
  %52 = getelementptr inbounds nuw i8, ptr %37, i64 88
  store ptr %8, ptr %52, align 8, !tbaa !4
  %53 = getelementptr inbounds nuw i8, ptr %37, i64 96
  store ptr %9, ptr %53, align 8, !tbaa !4
  %54 = getelementptr inbounds nuw i8, ptr %37, i64 104
  store ptr %12, ptr %54, align 8, !tbaa !4
  %55 = tail call ptr @lean_apply_4(ptr noundef %12, ptr noundef nonnull inttoptr (i64 1 to ptr), ptr noundef nonnull inttoptr (i64 1 to ptr), ptr noundef %22, ptr noundef nonnull %37) #6
  ret ptr %55
}